; Function Attrs: mustprogress uwtable
define hidden void @_ZN4cvc58internal4prop9CnfStream10StatisticsC2ERNS0_18StatisticsRegistryERKNSt7__cxx1112basic_stringIcSt11char_traitsIcESaIcEEE(ptr nocapture noundef nonnull writeonly align 8 dereferenceable(16) %this, ptr noundef nonnull align 8 dereferenceable(72) %sr, ptr noundef nonnull align 8 dereferenceable(32) %name) unnamed_addr #3 align 2 personality ptr @__gxx_personality_v0 {
entry:
  %ref.tmp = alloca %"class.std::__cxx11::basic_string", align 8
  %ref.tmp2 = alloca %"class.std::__cxx11::basic_string", align 8
  call void @_ZNSt7__cxx1112basic_stringIcSt11char_traitsIcESaIcEEC1ERKS4_(ptr noundef nonnull align 8 dereferenceable(32) %ref.tmp, ptr noundef nonnull align 8 dereferenceable(32) %name)
  %call.i = invoke noundef nonnull align 8 dereferenceable(32) ptr @_ZNSt7__cxx1112basic_stringIcSt11char_traitsIcESaIcEE6appendEPKc(ptr noundef nonnull align 8 dereferenceable(32) %ref.tmp, ptr noundef nonnull @.str.40)
          to label %_ZStplIcSt11char_traitsIcESaIcEENSt7__cxx1112basic_stringIT_T0_T1_EERKS8_PKS5_.exit unwind label %lpad.i

common.resume:                                    ; preds = %lpad, %lpad3, %lpad.i5, %lpad.i
  %ref.tmp.sink = phi ptr [ %ref.tmp, %lpad ], [ %ref.tmp2, %lpad3 ], [ %ref.tmp2, %lpad.i5 ], [ %ref.tmp, %lpad.i ]
  %common.resume.op = phi { ptr, i32 } [ %2, %lpad ], [ %3, %lpad3 ], [ %1, %lpad.i5 ], [ %0, %lpad.i ]
  call void @_ZNSt7__cxx1112basic_stringIcSt11char_traitsIcESaIcEED1Ev(ptr noundef nonnull align 8 dereferenceable(32) %ref.tmp.sink) #22
  resume { ptr, i32 } %common.resume.op

lpad.i:                                           ; preds = %entry
  %0 = landingpad { ptr, i32 }
          cleanup
  br label %common.resume

_ZStplIcSt11char_traitsIcESaIcEENSt7__cxx1112basic_stringIT_T0_T1_EERKS8_PKS5_.exit: ; preds = %entry
  %call = invoke ptr @_ZN4cvc58internal18StatisticsRegistry13registerTimerERKNSt7__cxx1112basic_stringIcSt11char_traitsIcESaIcEEEb(ptr noundef nonnull align 8 dereferenceable(72) %sr, ptr noundef nonnull align 8 dereferenceable(32) %ref.tmp, i1 noundef zeroext true)
          to label %invoke.cont unwind label %lpad

invoke.cont:                                      ; preds = %_ZStplIcSt11char_traitsIcESaIcEENSt7__cxx1112basic_stringIT_T0_T1_EERKS8_PKS5_.exit
  store ptr %call, ptr %this, align 8
  call void @_ZNSt7__cxx1112basic_stringIcSt11char_traitsIcESaIcEED1Ev(ptr noundef nonnull align 8 dereferenceable(32) %ref.tmp) #22
  call void @_ZNSt7__cxx1112basic_stringIcSt11char_traitsIcESaIcEEC1ERKS4_(ptr noundef nonnull align 8 dereferenceable(32) %ref.tmp2, ptr noundef nonnull align 8 dereferenceable(32) %name)
  %call.i4 = invoke noundef nonnull align 8 dereferenceable(32) ptr @_ZNSt7__cxx1112basic_stringIcSt11char_traitsIcESaIcEE6appendEPKc(ptr noundef nonnull align 8 dereferenceable(32) %ref.tmp2, ptr noundef nonnull @.str.41)
          to label %_ZStplIcSt11char_traitsIcESaIcEENSt7__cxx1112basic_stringIT_T0_T1_EERKS8_PKS5_.exit6 unwind label %lpad.i5

lpad.i5:                                          ; preds = %invoke.cont
  %1 = landingpad { ptr, i32 }
          cleanup
  br label %common.resume

_ZStplIcSt11char_traitsIcESaIcEENSt7__cxx1112basic_stringIT_T0_T1_EERKS8_PKS5_.exit6: ; preds = %invoke.cont
  %call5 = invoke ptr @_ZN4cvc58internal18StatisticsRegistry11registerIntERKNSt7__cxx1112basic_stringIcSt11char_traitsIcESaIcEEEb(ptr noundef nonnull align 8 dereferenceable(72) %sr, ptr noundef nonnull align 8 dereferenceable(32) %ref.tmp2, i1 noundef zeroext true)
          to label %invoke.cont4 unwind label %lpad3

invoke.cont4:                                     ; preds = %_ZStplIcSt11char_traitsIcESaIcEENSt7__cxx1112basic_stringIT_T0_T1_EERKS8_PKS5_.exit6
  %d_numAtoms = getelementptr inbounds i8, ptr %this, i64 8
  store ptr %call5, ptr %d_numAtoms, align 8
  call void @_ZNSt7__cxx1112basic_stringIcSt11char_traitsIcESaIcEED1Ev(ptr noundef nonnull align 8 dereferenceable(32) %ref.tmp2) #22
  ret void

lpad:                                             ; preds = %_ZStplIcSt11char_traitsIcESaIcEENSt7__cxx1112basic_stringIT_T0_T1_EERKS8_PKS5_.exit
  %2 = landingpad { ptr, i32 }
          cleanup
  br label %common.resume

lpad3:                                            ; preds = %_ZStplIcSt11char_traitsIcESaIcEENSt7__cxx1112basic_stringIT_T0_T1_EERKS8_PKS5_.exit6
  %3 = landingpad { ptr, i32 }
          cleanup
  br label %common.resume
}